; Function Attrs: nofree norecurse nosync nounwind memory(read, argmem: readwrite, inaccessiblemem: none) uwtable
define hidden range(i32 -2147483647, -2147483648) i32 @od_ec_decode_cdf_q15(ptr nocapture noundef nonnull %0, ptr nocapture noundef nonnull readonly %1, i32 noundef %2) local_unnamed_addr #1 {
  %4 = getelementptr inbounds nuw i8, ptr %0, i64 32
  %5 = load i32, ptr %4, align 8
  %6 = getelementptr inbounds nuw i8, ptr %0, i64 36
  %7 = load i16, ptr %6, align 4
  %8 = zext i16 %7 to i32
  %9 = lshr i32 %5, 16
  %10 = lshr i32 %8, 8
  br label %11

11:                                               ; preds = %11, %3
  %indvars.iv = phi i64 [ %indvars.iv.next, %11 ], [ -1, %3 ]
  %.021 = phi i32 [ %21, %11 ], [ %8, %3 ]
  %indvars.iv.next = add nsw i64 %indvars.iv, 1
  %12 = getelementptr inbounds i16, ptr %1, i64 %indvars.iv.next
  %13 = load i16, ptr %12, align 2
  %14 = lshr i16 %13, 6
  %15 = zext nneg i16 %14 to i32
  %16 = mul nuw nsw i32 %10, %15
  %17 = lshr i32 %16, 1
  %18 = trunc nsw i64 %indvars.iv to i32
  %reass.sub = sub i32 %2, %18
  %19 = shl i32 %reass.sub, 2
  %20 = add i32 %19, -8
  %21 = add i32 %20, %17
  %22 = icmp ult i32 %9, %21
  br i1 %22, label %11, label %23, !llvm.loop !6

23:                                               ; preds = %11
  %24 = sub i32 %.021, %21
  %25 = tail call range(i32 0, 33) i32 @llvm.ctlz.i32(i32 %24, i1 true)
  %26 = xor i32 %25, 31
  %27 = sub nsw i32 15, %26
  %28 = getelementptr inbounds nuw i8, ptr %0, i64 38
  %29 = load i16, ptr %28, align 2
  %30 = trunc nsw i32 %27 to i16
  %31 = sub i16 %29, %30
  store i16 %31, ptr %28, align 2
  %32 = add i32 %5, 1
  %33 = shl i32 %21, 16
  %34 = sub i32 %32, %33
  %35 = shl i32 %34, %27
  %36 = add i32 %35, -1
  store i32 %36, ptr %4, align 8
  %37 = shl i32 %24, %27
  %38 = trunc i32 %37 to i16
  store i16 %38, ptr %6, align 4
  %39 = icmp slt i16 %31, 0
  br i1 %39, label %40, label %od_ec_dec_normalize.exit

40:                                               ; preds = %23
  %41 = getelementptr inbounds nuw i8, ptr %0, i64 24
  %42 = load ptr, ptr %41, align 8
  %43 = getelementptr inbounds nuw i8, ptr %0, i64 16
  %44 = load ptr, ptr %43, align 8
  %45 = icmp ult ptr %42, %44
  br i1 %45, label %.lr.ph.preheader.i.i, label %._crit_edge.i.thread.i

.lr.ph.preheader.i.i:                             ; preds = %40
  %46 = sext i16 %31 to i32
  %47 = sub nsw i32 8, %46
  br label %.lr.ph.i.i

.lr.ph.i.i:                                       ; preds = %.lr.ph.i.i, %.lr.ph.preheader.i.i
  %.029.i.i = phi i32 [ %53, %.lr.ph.i.i ], [ %47, %.lr.ph.preheader.i.i ]
  %.02328.i.i = phi ptr [ %54, %.lr.ph.i.i ], [ %42, %.lr.ph.preheader.i.i ]
  %.02427.i.i = phi i16 [ %52, %.lr.ph.i.i ], [ %31, %.lr.ph.preheader.i.i ]
  %.02526.i.i = phi i32 [ %51, %.lr.ph.i.i ], [ %36, %.lr.ph.preheader.i.i ]
  %48 = load i8, ptr %.02328.i.i, align 1
  %49 = zext i8 %48 to i32
  %50 = shl i32 %49, %.029.i.i
  %51 = xor i32 %50, %.02526.i.i
  %52 = add i16 %.02427.i.i, 8
  %53 = add nsw i32 %.029.i.i, -8
  %54 = getelementptr inbounds i8, ptr %.02328.i.i, i64 1
  %55 = icmp ugt i32 %.029.i.i, 7
  %56 = icmp ult ptr %54, %44
  %57 = select i1 %55, i1 %56, i1 false
  br i1 %57, label %.lr.ph.i.i, label %._crit_edge.i.i, !llvm.loop !4

._crit_edge.i.i:                                  ; preds = %.lr.ph.i.i
  br i1 %56, label %od_ec_dec_refill.exit.i, label %._crit_edge.i.thread.i

._crit_edge.i.thread.i:                           ; preds = %._crit_edge.i.i, %40
  %.023.lcssa.i18.i = phi ptr [ %54, %._crit_edge.i.i ], [ %42, %40 ]
  %.024.lcssa.i17.i = phi i16 [ %52, %._crit_edge.i.i ], [ %31, %40 ]
  %.025.lcssa.i15.i = phi i32 [ %51, %._crit_edge.i.i ], [ %36, %40 ]
  %58 = sext i16 %.024.lcssa.i17.i to i32
  %59 = getelementptr inbounds nuw i8, ptr %0, i64 8
  %60 = load i32, ptr %59, align 8
  %reass.sub30 = sub i32 %60, %58
  %61 = add i32 %reass.sub30, 16384
  store i32 %61, ptr %59, align 8
  br label %od_ec_dec_refill.exit.i

od_ec_dec_refill.exit.i:                          ; preds = %._crit_edge.i.thread.i, %._crit_edge.i.i
  %.023.lcssa.i19.i = phi ptr [ %.023.lcssa.i18.i, %._crit_edge.i.thread.i ], [ %54, %._crit_edge.i.i ]
  %.025.lcssa.i16.i = phi i32 [ %.025.lcssa.i15.i, %._crit_edge.i.thread.i ], [ %51, %._crit_edge.i.i ]
  %.1.i.i = phi i16 [ 16384, %._crit_edge.i.thread.i ], [ %52, %._crit_edge.i.i ]
  store i32 %.025.lcssa.i16.i, ptr %4, align 8
  store i16 %.1.i.i, ptr %28, align 2
  store ptr %.023.lcssa.i19.i, ptr %41, align 8
  br label %od_ec_dec_normalize.exit

od_ec_dec_normalize.exit:                         ; preds = %23, %od_ec_dec_refill.exit.i
  %62 = trunc nuw nsw i64 %indvars.iv.next to i32
  ret i32 %62
}